; Function Attrs: nounwind uwtable
define dso_local void @fprintf_or_die(ptr noundef captures(none) %0, ptr noundef readonly captures(none) %1, ...) local_unnamed_addr #0 {
  %3 = alloca [1 x %struct.__va_list_tag], align 16
  call void @llvm.lifetime.start.p0(i64 24, ptr nonnull %3) #8
  call void @llvm.va_start.p0(ptr nonnull %3)
  %4 = call i32 @vfprintf(ptr noundef %0, ptr noundef %1, ptr noundef nonnull %3) #8
  call void @llvm.va_end.p0(ptr nonnull %3)
  %5 = icmp slt i32 %4, 0
  br i1 %5, label %6, label %9

6:                                                ; preds = %2
  %7 = tail call ptr @__errno_location() #9
  %8 = load i32, ptr %7, align 4, !tbaa !9
  call void @check_pipe(i32 noundef %8) #8
  call void (ptr, ...) @die_errno(ptr noundef nonnull @.str.2) #10
  unreachable

9:                                                ; preds = %2
  call void @llvm.lifetime.end.p0(i64 24, ptr nonnull %3) #8
  ret void
}